target datalayout = "e-m:e-p270:32:32-p271:32:32-p272:64:64-i64:64-i128:128-f80:128-n8:16:32:64-S128"
target triple = "x86_64-unknown-linux-gnu"

@.str.199 = private unnamed_addr constant [26 x i8] c"../qemu/hw/core/machine.c\00", align 1
@.str.291 = private unnamed_addr constant [27 x i8] c"confidential-guest-support\00", align 1
@__func__.machine_set_memory_encryption = private unnamed_addr constant [30 x i8] c"machine_set_memory_encryption\00", align 1
@.str.299 = private unnamed_addr constant [38 x i8] c"No such memory encryption object '%s'\00", align 1

; Function Attrs: nounwind sspstrong uwtable
define internal void @machine_set_memory_encryption(ptr noundef %obj, ptr noundef %value, ptr noundef %errp) #0 {
entry:
  %obj.addr = alloca ptr, align 8
  %value.addr = alloca ptr, align 8
  %errp.addr = alloca ptr, align 8
  %cgs = alloca ptr, align 8
  store ptr %obj, ptr %obj.addr, align 8
  store ptr %value, ptr %value.addr, align 8
  store ptr %errp, ptr %errp.addr, align 8
  %call = call ptr @object_get_objects_root()
  %0 = load ptr, ptr %value.addr, align 8
  %call1 = call ptr @object_resolve_path_component(ptr noundef %call, ptr noundef %0)
  store ptr %call1, ptr %cgs, align 8
  %1 = load ptr, ptr %cgs, align 8
  %tobool = icmp ne ptr %1, null
  br i1 %tobool, label %if.end, label %if.then

if.then:                                          ; preds = %entry
  %2 = load ptr, ptr %errp.addr, align 8
  %3 = load ptr, ptr %value.addr, align 8
  call void (ptr, ptr, i32, ptr, ptr, ...) @error_setg_internal(ptr noundef %2, ptr noundef @.str.199, i32 noundef 510, ptr noundef @__func__.machine_set_memory_encryption, ptr noundef @.str.299, ptr noundef %3)
  br label %return

if.end:                                           ; preds = %entry
  %4 = load ptr, ptr %obj.addr, align 8
  %5 = load ptr, ptr %cgs, align 8
  %6 = load ptr, ptr %errp.addr, align 8
  %call2 = call zeroext i1 @object_property_set_link(ptr noundef %4, ptr noundef @.str.291, ptr noundef %5, ptr noundef %6)
  br label %return

return:                                           ; preds = %if.end, %if.then
  ret void
}