; Function Attrs: nounwind sspstrong uwtable
define internal void @machine_set_memory_encryption(ptr noundef %obj, ptr noundef %value, ptr noundef %errp) #0 {
entry:
  %call = tail call ptr @object_get_objects_root() #16
  %call1 = tail call ptr @object_resolve_path_component(ptr noundef %call, ptr noundef %value) #16
  %tobool.not = icmp eq ptr %call1, null
  br i1 %tobool.not, label %if.then, label %if.end

if.then:                                          ; preds = %entry
  tail call void (ptr, ptr, i32, ptr, ptr, ...) @error_setg_internal(ptr noundef %errp, ptr noundef nonnull @.str.199, i32 noundef 510, ptr noundef nonnull @__func__.machine_set_memory_encryption, ptr noundef nonnull @.str.299, ptr noundef %value) #16
  br label %return

if.end:                                           ; preds = %entry
  %call2 = tail call zeroext i1 @object_property_set_link(ptr noundef %obj, ptr noundef nonnull @.str.291, ptr noundef nonnull %call1, ptr noundef %errp) #16
  br label %return

return:                                           ; preds = %if.end, %if.then
  ret void
}